target datalayout = "e-m:e-p270:32:32-p271:32:32-p272:64:64-i64:64-i128:128-f80:128-n8:16:32:64-S128"
target triple = "x86_64-pc-linux-gnu"

%struct.jpeg_compress_struct = type { ptr, ptr, ptr, ptr, i32, i32, ptr, i32, i32, i32, i32, double, i32, i32, i32, ptr, [4 x ptr], [4 x ptr], [4 x ptr], [16 x i8], [16 x i8], [16 x i8], i32, ptr, i32, i32, i32, i32, i32, i32, i32, i32, i32, i8, i8, i8, i16, i16, i32, i32, i32, i32, i32, i32, i32, [4 x ptr], i32, i32, i32, [10 x i32], i32, i32, i32, i32, ptr, ptr, ptr, ptr, ptr, ptr, ptr, ptr, ptr, ptr, i32 }
%struct.jpeg_error_mgr = type { ptr, ptr, ptr, ptr, ptr, i32, %union.anon, i32, i64, ptr, i32, ptr, i32, i32 }
%union.anon = type { [8 x i32], [48 x i8] }
%struct.ppm_source_struct = type { %struct.cjpeg_source_struct, ptr, ptr, i64, ptr, i32 }
%struct.cjpeg_source_struct = type { ptr, ptr, ptr, ptr, ptr, ptr, ptr, i32, i32 }

; Function Attrs: alwaysinline nounwind uwtable
define internal void @rgb_to_cmyk(i32 noundef %0, i8 noundef zeroext %1, i8 noundef zeroext %2, i8 noundef zeroext %3, ptr noundef %4, ptr noundef %5, ptr noundef %6, ptr noundef %7) #4 {
  %9 = alloca i32, align 4
  %10 = alloca i8, align 1
  %11 = alloca i8, align 1
  %12 = alloca i8, align 1
  %13 = alloca ptr, align 8
  %14 = alloca ptr, align 8
  %15 = alloca ptr, align 8
  %16 = alloca ptr, align 8
  %17 = alloca double, align 8
  %18 = alloca double, align 8
  %19 = alloca double, align 8
  %20 = alloca double, align 8
  store i32 %0, ptr %9, align 4, !tbaa !49
  store i8 %1, ptr %10, align 1, !tbaa !32
  store i8 %2, ptr %11, align 1, !tbaa !32
  store i8 %3, ptr %12, align 1, !tbaa !32
  store ptr %4, ptr %13, align 8, !tbaa !73
  store ptr %5, ptr %14, align 8, !tbaa !73
  store ptr %6, ptr %15, align 8, !tbaa !73
  store ptr %7, ptr %16, align 8, !tbaa !73
  call void @llvm.lifetime.start.p0(i64 8, ptr %17) #6
  %21 = load i8, ptr %10, align 1, !tbaa !32
  %22 = uitofp i8 %21 to double
  %23 = load i32, ptr %9, align 4, !tbaa !49
  %24 = sitofp i32 %23 to double
  %25 = fdiv double %22, %24
  %26 = fsub double 1.000000e+00, %25
  store double %26, ptr %17, align 8, !tbaa !106
  call void @llvm.lifetime.start.p0(i64 8, ptr %18) #6
  %27 = load i8, ptr %11, align 1, !tbaa !32
  %28 = uitofp i8 %27 to double
  %29 = load i32, ptr %9, align 4, !tbaa !49
  %30 = sitofp i32 %29 to double
  %31 = fdiv double %28, %30
  %32 = fsub double 1.000000e+00, %31
  store double %32, ptr %18, align 8, !tbaa !106
  call void @llvm.lifetime.start.p0(i64 8, ptr %19) #6
  %33 = load i8, ptr %12, align 1, !tbaa !32
  %34 = uitofp i8 %33 to double
  %35 = load i32, ptr %9, align 4, !tbaa !49
  %36 = sitofp i32 %35 to double
  %37 = fdiv double %34, %36
  %38 = fsub double 1.000000e+00, %37
  store double %38, ptr %19, align 8, !tbaa !106
  call void @llvm.lifetime.start.p0(i64 8, ptr %20) #6
  %39 = load double, ptr %17, align 8, !tbaa !106
  %40 = load double, ptr %18, align 8, !tbaa !106
  %41 = fcmp olt double %39, %40
  br i1 %41, label %42, label %44

42:                                               ; preds = %8
  %43 = load double, ptr %17, align 8, !tbaa !106
  br label %46

44:                                               ; preds = %8
  %45 = load double, ptr %18, align 8, !tbaa !106
  br label %46

46:                                               ; preds = %44, %42
  %47 = phi double [ %43, %42 ], [ %45, %44 ]
  %48 = load double, ptr %19, align 8, !tbaa !106
  %49 = fcmp olt double %47, %48
  br i1 %49, label %50, label %60

50:                                               ; preds = %46
  %51 = load double, ptr %17, align 8, !tbaa !106
  %52 = load double, ptr %18, align 8, !tbaa !106
  %53 = fcmp olt double %51, %52
  br i1 %53, label %54, label %56

54:                                               ; preds = %50
  %55 = load double, ptr %17, align 8, !tbaa !106
  br label %58

56:                                               ; preds = %50
  %57 = load double, ptr %18, align 8, !tbaa !106
  br label %58

58:                                               ; preds = %56, %54
  %59 = phi double [ %55, %54 ], [ %57, %56 ]
  br label %62

60:                                               ; preds = %46
  %61 = load double, ptr %19, align 8, !tbaa !106
  br label %62

62:                                               ; preds = %60, %58
  %63 = phi double [ %59, %58 ], [ %61, %60 ]
  store double %63, ptr %20, align 8, !tbaa !106
  %64 = load double, ptr %20, align 8, !tbaa !106
  %65 = fcmp oeq double %64, 1.000000e+00
  br i1 %65, label %66, label %67

66:                                               ; preds = %62
  store double 0.000000e+00, ptr %19, align 8, !tbaa !106
  store double 0.000000e+00, ptr %18, align 8, !tbaa !106
  store double 0.000000e+00, ptr %17, align 8, !tbaa !106
  br label %86

67:                                               ; preds = %62
  %68 = load double, ptr %17, align 8, !tbaa !106
  %69 = load double, ptr %20, align 8, !tbaa !106
  %70 = fsub double %68, %69
  %71 = load double, ptr %20, align 8, !tbaa !106
  %72 = fsub double 1.000000e+00, %71
  %73 = fdiv double %70, %72
  store double %73, ptr %17, align 8, !tbaa !106
  %74 = load double, ptr %18, align 8, !tbaa !106
  %75 = load double, ptr %20, align 8, !tbaa !106
  %76 = fsub double %74, %75
  %77 = load double, ptr %20, align 8, !tbaa !106
  %78 = fsub double 1.000000e+00, %77
  %79 = fdiv double %76, %78
  store double %79, ptr %18, align 8, !tbaa !106
  %80 = load double, ptr %19, align 8, !tbaa !106
  %81 = load double, ptr %20, align 8, !tbaa !106
  %82 = fsub double %80, %81
  %83 = load double, ptr %20, align 8, !tbaa !106
  %84 = fsub double 1.000000e+00, %83
  %85 = fdiv double %82, %84
  store double %85, ptr %19, align 8, !tbaa !106
  br label %86

86:                                               ; preds = %67, %66
  %87 = load i32, ptr %9, align 4, !tbaa !49
  %88 = sitofp i32 %87 to double
  %89 = load double, ptr %17, align 8, !tbaa !106
  %90 = load i32, ptr %9, align 4, !tbaa !49
  %91 = sitofp i32 %90 to double
  %92 = fneg double %89
  %93 = call double @llvm.fmuladd.f64(double %92, double %91, double %88)
  %94 = fadd double %93, 5.000000e-01
  %95 = fptoui double %94 to i8
  %96 = load ptr, ptr %13, align 8, !tbaa !73
  store i8 %95, ptr %96, align 1, !tbaa !32
  %97 = load i32, ptr %9, align 4, !tbaa !49
  %98 = sitofp i32 %97 to double
  %99 = load double, ptr %18, align 8, !tbaa !106
  %100 = load i32, ptr %9, align 4, !tbaa !49
  %101 = sitofp i32 %100 to double
  %102 = fneg double %99
  %103 = call double @llvm.fmuladd.f64(double %102, double %101, double %98)
  %104 = fadd double %103, 5.000000e-01
  %105 = fptoui double %104 to i8
  %106 = load ptr, ptr %14, align 8, !tbaa !73
  store i8 %105, ptr %106, align 1, !tbaa !32
  %107 = load i32, ptr %9, align 4, !tbaa !49
  %108 = sitofp i32 %107 to double
  %109 = load double, ptr %19, align 8, !tbaa !106
  %110 = load i32, ptr %9, align 4, !tbaa !49
  %111 = sitofp i32 %110 to double
  %112 = fneg double %109
  %113 = call double @llvm.fmuladd.f64(double %112, double %111, double %108)
  %114 = fadd double %113, 5.000000e-01
  %115 = fptoui double %114 to i8
  %116 = load ptr, ptr %15, align 8, !tbaa !73
  store i8 %115, ptr %116, align 1, !tbaa !32
  %117 = load i32, ptr %9, align 4, !tbaa !49
  %118 = sitofp i32 %117 to double
  %119 = load double, ptr %20, align 8, !tbaa !106
  %120 = load i32, ptr %9, align 4, !tbaa !49
  %121 = sitofp i32 %120 to double
  %122 = fneg double %119
  %123 = call double @llvm.fmuladd.f64(double %122, double %121, double %118)
  %124 = fadd double %123, 5.000000e-01
  %125 = fptoui double %124 to i8
  %126 = load ptr, ptr %16, align 8, !tbaa !73
  store i8 %125, ptr %126, align 1, !tbaa !32
  call void @llvm.lifetime.end.p0(i64 8, ptr %20) #6
  call void @llvm.lifetime.end.p0(i64 8, ptr %19) #6
  call void @llvm.lifetime.end.p0(i64 8, ptr %18) #6
  call void @llvm.lifetime.end.p0(i64 8, ptr %17) #6
  ret void
}

; Function Attrs: nounwind uwtable
define internal i32 @get_rgb_cmyk_row(ptr noundef %0, ptr noundef %1) #0 {
  %3 = alloca ptr, align 8
  %4 = alloca ptr, align 8
  %5 = alloca ptr, align 8
  %6 = alloca ptr, align 8
  %7 = alloca ptr, align 8
  %8 = alloca ptr, align 8
  %9 = alloca i32, align 4
  %10 = alloca i32, align 4
  %11 = alloca i8, align 1
  %12 = alloca i8, align 1
  %13 = alloca i8, align 1
  %14 = alloca i8, align 1
  %15 = alloca i8, align 1
  %16 = alloca i8, align 1
  store ptr %0, ptr %3, align 8, !tbaa !4
  store ptr %1, ptr %4, align 8, !tbaa !46
  call void @llvm.lifetime.start.p0(i64 8, ptr %5) #6
  %17 = load ptr, ptr %4, align 8, !tbaa !46
  store ptr %17, ptr %5, align 8, !tbaa !37
  call void @llvm.lifetime.start.p0(i64 8, ptr %6) #6
  call void @llvm.lifetime.start.p0(i64 8, ptr %7) #6
  call void @llvm.lifetime.start.p0(i64 8, ptr %8) #6
  %18 = load ptr, ptr %5, align 8, !tbaa !37
  %19 = getelementptr inbounds nuw %struct.ppm_source_struct, ptr %18, i32 0, i32 4
  %20 = load ptr, ptr %19, align 8, !tbaa !66
  store ptr %20, ptr %8, align 8, !tbaa !73
  call void @llvm.lifetime.start.p0(i64 4, ptr %9) #6
  call void @llvm.lifetime.start.p0(i64 4, ptr %10) #6
  %21 = load ptr, ptr %5, align 8, !tbaa !37
  %22 = getelementptr inbounds nuw %struct.ppm_source_struct, ptr %21, i32 0, i32 5
  %23 = load i32, ptr %22, align 8, !tbaa !53
  store i32 %23, ptr %10, align 4, !tbaa !49
  %24 = load ptr, ptr %5, align 8, !tbaa !37
  %25 = getelementptr inbounds nuw %struct.ppm_source_struct, ptr %24, i32 0, i32 1
  %26 = load ptr, ptr %25, align 8, !tbaa !61
  %27 = load ptr, ptr %5, align 8, !tbaa !37
  %28 = getelementptr inbounds nuw %struct.ppm_source_struct, ptr %27, i32 0, i32 3
  %29 = load i64, ptr %28, align 8, !tbaa !60
  %30 = load ptr, ptr %5, align 8, !tbaa !37
  %31 = getelementptr inbounds nuw %struct.ppm_source_struct, ptr %30, i32 0, i32 0
  %32 = getelementptr inbounds nuw %struct.cjpeg_source_struct, ptr %31, i32 0, i32 3
  %33 = load ptr, ptr %32, align 8, !tbaa !48
  %34 = call i64 @fread(ptr noundef %26, i64 noundef 1, i64 noundef %29, ptr noundef %33)
  %35 = load ptr, ptr %5, align 8, !tbaa !37
  %36 = getelementptr inbounds nuw %struct.ppm_source_struct, ptr %35, i32 0, i32 3
  %37 = load i64, ptr %36, align 8, !tbaa !60
  %38 = icmp eq i64 %34, %37
  br i1 %38, label %50, label %39

39:                                               ; preds = %2
  %40 = load ptr, ptr %3, align 8, !tbaa !4
  %41 = getelementptr inbounds nuw %struct.jpeg_compress_struct, ptr %40, i32 0, i32 0
  %42 = load ptr, ptr %41, align 8, !tbaa !27
  %43 = getelementptr inbounds nuw %struct.jpeg_error_mgr, ptr %42, i32 0, i32 5
  store i32 43, ptr %43, align 8, !tbaa !28
  %44 = load ptr, ptr %3, align 8, !tbaa !4
  %45 = getelementptr inbounds nuw %struct.jpeg_compress_struct, ptr %44, i32 0, i32 0
  %46 = load ptr, ptr %45, align 8, !tbaa !27
  %47 = getelementptr inbounds nuw %struct.jpeg_error_mgr, ptr %46, i32 0, i32 0
  %48 = load ptr, ptr %47, align 8, !tbaa !33
  %49 = load ptr, ptr %3, align 8, !tbaa !4
  call void %48(ptr noundef %49)
  br label %50

50:                                               ; preds = %39, %2
  %51 = load ptr, ptr %5, align 8, !tbaa !37
  %52 = getelementptr inbounds nuw %struct.ppm_source_struct, ptr %51, i32 0, i32 0
  %53 = getelementptr inbounds nuw %struct.cjpeg_source_struct, ptr %52, i32 0, i32 4
  %54 = load ptr, ptr %53, align 8, !tbaa !63
  %55 = getelementptr inbounds ptr, ptr %54, i64 0
  %56 = load ptr, ptr %55, align 8, !tbaa !73
  store ptr %56, ptr %6, align 8, !tbaa !73
  %57 = load ptr, ptr %5, align 8, !tbaa !37
  %58 = getelementptr inbounds nuw %struct.ppm_source_struct, ptr %57, i32 0, i32 1
  %59 = load ptr, ptr %58, align 8, !tbaa !61
  store ptr %59, ptr %7, align 8, !tbaa !73
  %60 = load i32, ptr %10, align 4, !tbaa !49
  %61 = load ptr, ptr %3, align 8, !tbaa !4
  %62 = getelementptr inbounds nuw %struct.jpeg_compress_struct, ptr %61, i32 0, i32 12
  %63 = load i32, ptr %62, align 8, !tbaa !9
  %64 = shl i32 1, %63
  %65 = sub i32 %64, 1
  %66 = icmp eq i32 %60, %65
  br i1 %66, label %67, label %101

67:                                               ; preds = %50
  %68 = load ptr, ptr %3, align 8, !tbaa !4
  %69 = getelementptr inbounds nuw %struct.jpeg_compress_struct, ptr %68, i32 0, i32 7
  %70 = load i32, ptr %69, align 8, !tbaa !51
  store i32 %70, ptr %9, align 4, !tbaa !49
  br label %71

71:                                               ; preds = %97, %67
  %72 = load i32, ptr %9, align 4, !tbaa !49
  %73 = icmp ugt i32 %72, 0
  br i1 %73, label %74, label %100

74:                                               ; preds = %71
  call void @llvm.lifetime.start.p0(i64 1, ptr %11) #6
  %75 = load ptr, ptr %7, align 8, !tbaa !73
  %76 = getelementptr inbounds nuw i8, ptr %75, i32 1
  store ptr %76, ptr %7, align 8, !tbaa !73
  %77 = load i8, ptr %75, align 1, !tbaa !32
  store i8 %77, ptr %11, align 1, !tbaa !32
  call void @llvm.lifetime.start.p0(i64 1, ptr %12) #6
  %78 = load ptr, ptr %7, align 8, !tbaa !73
  %79 = getelementptr inbounds nuw i8, ptr %78, i32 1
  store ptr %79, ptr %7, align 8, !tbaa !73
  %80 = load i8, ptr %78, align 1, !tbaa !32
  store i8 %80, ptr %12, align 1, !tbaa !32
  call void @llvm.lifetime.start.p0(i64 1, ptr %13) #6
  %81 = load ptr, ptr %7, align 8, !tbaa !73
  %82 = getelementptr inbounds nuw i8, ptr %81, i32 1
  store ptr %82, ptr %7, align 8, !tbaa !73
  %83 = load i8, ptr %81, align 1, !tbaa !32
  store i8 %83, ptr %13, align 1, !tbaa !32
  %84 = load i32, ptr %10, align 4, !tbaa !49
  %85 = load i8, ptr %11, align 1, !tbaa !32
  %86 = load i8, ptr %12, align 1, !tbaa !32
  %87 = load i8, ptr %13, align 1, !tbaa !32
  %88 = load ptr, ptr %6, align 8, !tbaa !73
  %89 = load ptr, ptr %6, align 8, !tbaa !73
  %90 = getelementptr inbounds i8, ptr %89, i64 1
  %91 = load ptr, ptr %6, align 8, !tbaa !73
  %92 = getelementptr inbounds i8, ptr %91, i64 2
  %93 = load ptr, ptr %6, align 8, !tbaa !73
  %94 = getelementptr inbounds i8, ptr %93, i64 3
  call void @rgb_to_cmyk(i32 noundef %84, i8 noundef zeroext %85, i8 noundef zeroext %86, i8 noundef zeroext %87, ptr noundef %88, ptr noundef %90, ptr noundef %92, ptr noundef %94)
  %95 = load ptr, ptr %6, align 8, !tbaa !73
  %96 = getelementptr inbounds i8, ptr %95, i64 4
  store ptr %96, ptr %6, align 8, !tbaa !73
  call void @llvm.lifetime.end.p0(i64 1, ptr %13) #6
  call void @llvm.lifetime.end.p0(i64 1, ptr %12) #6
  call void @llvm.lifetime.end.p0(i64 1, ptr %11) #6
  br label %97

97:                                               ; preds = %74
  %98 = load i32, ptr %9, align 4, !tbaa !49
  %99 = add i32 %98, -1
  store i32 %99, ptr %9, align 4, !tbaa !49
  br label %71, !llvm.loop !103

100:                                              ; preds = %71
  br label %150

101:                                              ; preds = %50
  %102 = load ptr, ptr %3, align 8, !tbaa !4
  %103 = getelementptr inbounds nuw %struct.jpeg_compress_struct, ptr %102, i32 0, i32 7
  %104 = load i32, ptr %103, align 8, !tbaa !51
  store i32 %104, ptr %9, align 4, !tbaa !49
  br label %105

105:                                              ; preds = %146, %101
  %106 = load i32, ptr %9, align 4, !tbaa !49
  %107 = icmp ugt i32 %106, 0
  br i1 %107, label %108, label %149

108:                                              ; preds = %105
  call void @llvm.lifetime.start.p0(i64 1, ptr %14) #6
  %109 = load ptr, ptr %8, align 8, !tbaa !73
  %110 = load ptr, ptr %7, align 8, !tbaa !73
  %111 = getelementptr inbounds nuw i8, ptr %110, i32 1
  store ptr %111, ptr %7, align 8, !tbaa !73
  %112 = load i8, ptr %110, align 1, !tbaa !32
  %113 = zext i8 %112 to i32
  %114 = sext i32 %113 to i64
  %115 = getelementptr inbounds i8, ptr %109, i64 %114
  %116 = load i8, ptr %115, align 1, !tbaa !32
  store i8 %116, ptr %14, align 1, !tbaa !32
  call void @llvm.lifetime.start.p0(i64 1, ptr %15) #6
  %117 = load ptr, ptr %8, align 8, !tbaa !73
  %118 = load ptr, ptr %7, align 8, !tbaa !73
  %119 = getelementptr inbounds nuw i8, ptr %118, i32 1
  store ptr %119, ptr %7, align 8, !tbaa !73
  %120 = load i8, ptr %118, align 1, !tbaa !32
  %121 = zext i8 %120 to i32
  %122 = sext i32 %121 to i64
  %123 = getelementptr inbounds i8, ptr %117, i64 %122
  %124 = load i8, ptr %123, align 1, !tbaa !32
  store i8 %124, ptr %15, align 1, !tbaa !32
  call void @llvm.lifetime.start.p0(i64 1, ptr %16) #6
  %125 = load ptr, ptr %8, align 8, !tbaa !73
  %126 = load ptr, ptr %7, align 8, !tbaa !73
  %127 = getelementptr inbounds nuw i8, ptr %126, i32 1
  store ptr %127, ptr %7, align 8, !tbaa !73
  %128 = load i8, ptr %126, align 1, !tbaa !32
  %129 = zext i8 %128 to i32
  %130 = sext i32 %129 to i64
  %131 = getelementptr inbounds i8, ptr %125, i64 %130
  %132 = load i8, ptr %131, align 1, !tbaa !32
  store i8 %132, ptr %16, align 1, !tbaa !32
  %133 = load i32, ptr %10, align 4, !tbaa !49
  %134 = load i8, ptr %14, align 1, !tbaa !32
  %135 = load i8, ptr %15, align 1, !tbaa !32
  %136 = load i8, ptr %16, align 1, !tbaa !32
  %137 = load ptr, ptr %6, align 8, !tbaa !73
  %138 = load ptr, ptr %6, align 8, !tbaa !73
  %139 = getelementptr inbounds i8, ptr %138, i64 1
  %140 = load ptr, ptr %6, align 8, !tbaa !73
  %141 = getelementptr inbounds i8, ptr %140, i64 2
  %142 = load ptr, ptr %6, align 8, !tbaa !73
  %143 = getelementptr inbounds i8, ptr %142, i64 3
  call void @rgb_to_cmyk(i32 noundef %133, i8 noundef zeroext %134, i8 noundef zeroext %135, i8 noundef zeroext %136, ptr noundef %137, ptr noundef %139, ptr noundef %141, ptr noundef %143)
  %144 = load ptr, ptr %6, align 8, !tbaa !73
  %145 = getelementptr inbounds i8, ptr %144, i64 4
  store ptr %145, ptr %6, align 8, !tbaa !73
  call void @llvm.lifetime.end.p0(i64 1, ptr %16) #6
  call void @llvm.lifetime.end.p0(i64 1, ptr %15) #6
  call void @llvm.lifetime.end.p0(i64 1, ptr %14) #6
  br label %146

146:                                              ; preds = %108
  %147 = load i32, ptr %9, align 4, !tbaa !49
  %148 = add i32 %147, -1
  store i32 %148, ptr %9, align 4, !tbaa !49
  br label %105, !llvm.loop !104

149:                                              ; preds = %105
  br label %150

150:                                              ; preds = %149, %100
  call void @llvm.lifetime.end.p0(i64 4, ptr %10) #6
  call void @llvm.lifetime.end.p0(i64 4, ptr %9) #6
  call void @llvm.lifetime.end.p0(i64 8, ptr %8) #6
  call void @llvm.lifetime.end.p0(i64 8, ptr %7) #6
  call void @llvm.lifetime.end.p0(i64 8, ptr %6) #6
  call void @llvm.lifetime.end.p0(i64 8, ptr %5) #6
  ret i32 1
}