; Function Attrs: nounwind uwtable
define internal noundef i32 @get_rgb_cmyk_row(ptr noundef %0, ptr noundef readonly captures(none) %1) #0 {
  %3 = getelementptr inbounds nuw i8, ptr %1, i64 88
  %4 = load ptr, ptr %3, align 8, !tbaa !59
  %5 = getelementptr inbounds nuw i8, ptr %1, i64 96
  %6 = load i32, ptr %5, align 8, !tbaa !47
  %7 = getelementptr inbounds nuw i8, ptr %1, i64 64
  %8 = load ptr, ptr %7, align 8, !tbaa !54
  %9 = getelementptr inbounds nuw i8, ptr %1, i64 80
  %10 = load i64, ptr %9, align 8, !tbaa !53
  %11 = getelementptr inbounds nuw i8, ptr %1, i64 24
  %12 = load ptr, ptr %11, align 8, !tbaa !43
  %13 = tail call i64 @fread(ptr noundef %8, i64 noundef 1, i64 noundef %10, ptr noundef %12)
  %14 = load i64, ptr %9, align 8, !tbaa !53
  %15 = icmp eq i64 %13, %14
  br i1 %15, label %20, label %16

16:                                               ; preds = %2
  %17 = load ptr, ptr %0, align 8, !tbaa !25
  %18 = getelementptr inbounds nuw i8, ptr %17, i64 40
  store i32 43, ptr %18, align 8, !tbaa !26
  %19 = load ptr, ptr %17, align 8, !tbaa !31
  tail call void %19(ptr noundef nonnull %0) #6
  br label %20

20:                                               ; preds = %16, %2
  %21 = getelementptr inbounds nuw i8, ptr %1, i64 32
  %22 = load ptr, ptr %21, align 8, !tbaa !57
  %23 = load ptr, ptr %22, align 8, !tbaa !63
  %24 = load ptr, ptr %7, align 8, !tbaa !54
  %25 = getelementptr inbounds nuw i8, ptr %0, i64 72
  %26 = load i32, ptr %25, align 8, !tbaa !4
  %notmask = shl nsw i32 -1, %26
  %27 = xor i32 %notmask, %6
  %28 = icmp eq i32 %27, -1
  %29 = getelementptr inbounds nuw i8, ptr %0, i64 48
  %30 = load i32, ptr %29, align 8, !tbaa !45
  %.not5263 = icmp eq i32 %30, 0
  br i1 %28, label %31, label %82

31:                                               ; preds = %20
  br i1 %.not5263, label %.loopexit, label %.lr.ph67

.lr.ph67:                                         ; preds = %31
  %32 = sitofp i32 %6 to double
  br label %33

33:                                               ; preds = %.lr.ph67, %rgb_to_cmyk.exit
  %.066 = phi ptr [ %23, %.lr.ph67 ], [ %80, %rgb_to_cmyk.exit ]
  %.04665 = phi ptr [ %24, %.lr.ph67 ], [ %38, %rgb_to_cmyk.exit ]
  %.04864 = phi i32 [ %30, %.lr.ph67 ], [ %81, %rgb_to_cmyk.exit ]
  %34 = getelementptr inbounds nuw i8, ptr %.04665, i64 1
  %35 = load i8, ptr %.04665, align 1, !tbaa !30
  %36 = getelementptr inbounds nuw i8, ptr %.04665, i64 2
  %37 = load i8, ptr %34, align 1, !tbaa !30
  %38 = getelementptr inbounds nuw i8, ptr %.04665, i64 3
  %39 = load i8, ptr %36, align 1, !tbaa !30
  %40 = getelementptr inbounds nuw i8, ptr %.066, i64 1
  %41 = getelementptr inbounds nuw i8, ptr %.066, i64 2
  %42 = getelementptr inbounds nuw i8, ptr %.066, i64 3
  %43 = uitofp i8 %35 to double
  %44 = fdiv double %43, %32
  %45 = fsub double 1.000000e+00, %44
  %46 = uitofp i8 %37 to double
  %47 = fdiv double %46, %32
  %48 = fsub double 1.000000e+00, %47
  %49 = uitofp i8 %39 to double
  %50 = fdiv double %49, %32
  %51 = fsub double 1.000000e+00, %50
  %52 = fcmp olt double %45, %48
  %53 = select i1 %52, double %45, double %48
  %54 = fcmp olt double %53, %51
  %..i = select i1 %54, double %53, double %51
  %55 = fcmp oeq double %..i, 1.000000e+00
  br i1 %55, label %rgb_to_cmyk.exit, label %56

56:                                               ; preds = %33
  %57 = fsub double %45, %..i
  %58 = fsub double 1.000000e+00, %..i
  %59 = fdiv double %57, %58
  %60 = fsub double %48, %..i
  %61 = fdiv double %60, %58
  %62 = fsub double %51, %..i
  %63 = fdiv double %62, %58
  br label %rgb_to_cmyk.exit

rgb_to_cmyk.exit:                                 ; preds = %33, %56
  %.042.i = phi double [ %61, %56 ], [ 0.000000e+00, %33 ]
  %.041.i = phi double [ %63, %56 ], [ 0.000000e+00, %33 ]
  %.0.i = phi double [ %59, %56 ], [ 0.000000e+00, %33 ]
  %64 = fneg double %.0.i
  %65 = tail call double @llvm.fmuladd.f64(double %64, double %32, double %32)
  %66 = fadd double %65, 5.000000e-01
  %67 = fptoui double %66 to i8
  store i8 %67, ptr %.066, align 1, !tbaa !30
  %68 = fneg double %.042.i
  %69 = tail call double @llvm.fmuladd.f64(double %68, double %32, double %32)
  %70 = fadd double %69, 5.000000e-01
  %71 = fptoui double %70 to i8
  store i8 %71, ptr %40, align 1, !tbaa !30
  %72 = fneg double %.041.i
  %73 = tail call double @llvm.fmuladd.f64(double %72, double %32, double %32)
  %74 = fadd double %73, 5.000000e-01
  %75 = fptoui double %74 to i8
  store i8 %75, ptr %41, align 1, !tbaa !30
  %76 = fneg double %..i
  %77 = tail call double @llvm.fmuladd.f64(double %76, double %32, double %32)
  %78 = fadd double %77, 5.000000e-01
  %79 = fptoui double %78 to i8
  store i8 %79, ptr %42, align 1, !tbaa !30
  %80 = getelementptr inbounds nuw i8, ptr %.066, i64 4
  %81 = add i32 %.04864, -1
  %.not52 = icmp eq i32 %81, 0
  br i1 %.not52, label %.loopexit, label %33, !llvm.loop !93

82:                                               ; preds = %20
  br i1 %.not5263, label %.loopexit, label %.lr.ph

.lr.ph:                                           ; preds = %82
  %83 = sitofp i32 %6 to double
  br label %84

84:                                               ; preds = %.lr.ph, %rgb_to_cmyk.exit57
  %.162 = phi ptr [ %23, %.lr.ph ], [ %140, %rgb_to_cmyk.exit57 ]
  %.14761 = phi ptr [ %24, %.lr.ph ], [ %95, %rgb_to_cmyk.exit57 ]
  %.14960 = phi i32 [ %30, %.lr.ph ], [ %141, %rgb_to_cmyk.exit57 ]
  %85 = getelementptr inbounds nuw i8, ptr %.14761, i64 1
  %86 = load i8, ptr %.14761, align 1, !tbaa !30
  %87 = zext i8 %86 to i64
  %88 = getelementptr inbounds nuw i8, ptr %4, i64 %87
  %89 = load i8, ptr %88, align 1, !tbaa !30
  %90 = getelementptr inbounds nuw i8, ptr %.14761, i64 2
  %91 = load i8, ptr %85, align 1, !tbaa !30
  %92 = zext i8 %91 to i64
  %93 = getelementptr inbounds nuw i8, ptr %4, i64 %92
  %94 = load i8, ptr %93, align 1, !tbaa !30
  %95 = getelementptr inbounds nuw i8, ptr %.14761, i64 3
  %96 = load i8, ptr %90, align 1, !tbaa !30
  %97 = zext i8 %96 to i64
  %98 = getelementptr inbounds nuw i8, ptr %4, i64 %97
  %99 = load i8, ptr %98, align 1, !tbaa !30
  %100 = getelementptr inbounds nuw i8, ptr %.162, i64 1
  %101 = getelementptr inbounds nuw i8, ptr %.162, i64 2
  %102 = getelementptr inbounds nuw i8, ptr %.162, i64 3
  %103 = uitofp i8 %89 to double
  %104 = fdiv double %103, %83
  %105 = fsub double 1.000000e+00, %104
  %106 = uitofp i8 %94 to double
  %107 = fdiv double %106, %83
  %108 = fsub double 1.000000e+00, %107
  %109 = uitofp i8 %99 to double
  %110 = fdiv double %109, %83
  %111 = fsub double 1.000000e+00, %110
  %112 = fcmp olt double %105, %108
  %113 = select i1 %112, double %105, double %108
  %114 = fcmp olt double %113, %111
  %..i53 = select i1 %114, double %113, double %111
  %115 = fcmp oeq double %..i53, 1.000000e+00
  br i1 %115, label %rgb_to_cmyk.exit57, label %116

116:                                              ; preds = %84
  %117 = fsub double %105, %..i53
  %118 = fsub double 1.000000e+00, %..i53
  %119 = fdiv double %117, %118
  %120 = fsub double %108, %..i53
  %121 = fdiv double %120, %118
  %122 = fsub double %111, %..i53
  %123 = fdiv double %122, %118
  br label %rgb_to_cmyk.exit57

rgb_to_cmyk.exit57:                               ; preds = %84, %116
  %.042.i54 = phi double [ %121, %116 ], [ 0.000000e+00, %84 ]
  %.041.i55 = phi double [ %123, %116 ], [ 0.000000e+00, %84 ]
  %.0.i56 = phi double [ %119, %116 ], [ 0.000000e+00, %84 ]
  %124 = fneg double %.0.i56
  %125 = tail call double @llvm.fmuladd.f64(double %124, double %83, double %83)
  %126 = fadd double %125, 5.000000e-01
  %127 = fptoui double %126 to i8
  store i8 %127, ptr %.162, align 1, !tbaa !30
  %128 = fneg double %.042.i54
  %129 = tail call double @llvm.fmuladd.f64(double %128, double %83, double %83)
  %130 = fadd double %129, 5.000000e-01
  %131 = fptoui double %130 to i8
  store i8 %131, ptr %100, align 1, !tbaa !30
  %132 = fneg double %.041.i55
  %133 = tail call double @llvm.fmuladd.f64(double %132, double %83, double %83)
  %134 = fadd double %133, 5.000000e-01
  %135 = fptoui double %134 to i8
  store i8 %135, ptr %101, align 1, !tbaa !30
  %136 = fneg double %..i53
  %137 = tail call double @llvm.fmuladd.f64(double %136, double %83, double %83)
  %138 = fadd double %137, 5.000000e-01
  %139 = fptoui double %138 to i8
  store i8 %139, ptr %102, align 1, !tbaa !30
  %140 = getelementptr inbounds nuw i8, ptr %.162, i64 4
  %141 = add i32 %.14960, -1
  %.not = icmp eq i32 %141, 0
  br i1 %.not, label %.loopexit, label %84, !llvm.loop !94

.loopexit:                                        ; preds = %rgb_to_cmyk.exit57, %rgb_to_cmyk.exit, %82, %31
  ret i32 1
}